target datalayout = "e-m:e-p270:32:32-p271:32:32-p272:64:64-i64:64-i128:128-f80:128-n8:16:32:64-S128"
target triple = "x86_64-pc-linux-gnu"

%struct.Fraig_NodeStruct_t_ = type { i32, i32, i32, i32, i32, i32, i32, ptr, ptr, ptr, ptr, ptr, ptr, ptr, ptr, i32, i32, ptr, ptr, ptr, ptr, ptr, ptr, ptr }

; Function Attrs: nounwind uwtable
define void @Fraig_CollectXors(ptr noundef %0, ptr noundef %1, i32 noundef %2, i32 noundef %3, ptr noundef %4) #0 {
  %6 = alloca ptr, align 8
  %7 = alloca ptr, align 8
  %8 = alloca i32, align 4
  %9 = alloca i32, align 4
  %10 = alloca ptr, align 8
  %11 = alloca ptr, align 8
  %12 = alloca ptr, align 8
  %13 = alloca i32, align 4
  store ptr %0, ptr %6, align 8, !tbaa !19
  store ptr %1, ptr %7, align 8, !tbaa !19
  store i32 %2, ptr %8, align 4, !tbaa !3
  store i32 %3, ptr %9, align 4, !tbaa !3
  store ptr %4, ptr %10, align 8, !tbaa !68
  call void @llvm.lifetime.start.p0(i64 8, ptr %11) #7
  call void @llvm.lifetime.start.p0(i64 8, ptr %12) #7
  call void @llvm.lifetime.start.p0(i64 4, ptr %13) #7
  %14 = load i32, ptr %9, align 4, !tbaa !3
  %15 = icmp ne i32 %14, 0
  br i1 %15, label %16, label %20

16:                                               ; preds = %5
  %17 = load ptr, ptr %6, align 8, !tbaa !19
  %18 = getelementptr inbounds nuw %struct.Fraig_NodeStruct_t_, ptr %17, i32 0, i32 17
  %19 = load ptr, ptr %18, align 8, !tbaa !51
  br label %24

20:                                               ; preds = %5
  %21 = load ptr, ptr %6, align 8, !tbaa !19
  %22 = getelementptr inbounds nuw %struct.Fraig_NodeStruct_t_, ptr %21, i32 0, i32 18
  %23 = load ptr, ptr %22, align 8, !tbaa !54
  br label %24

24:                                               ; preds = %20, %16
  %25 = phi ptr [ %19, %16 ], [ %23, %20 ]
  store ptr %25, ptr %11, align 8, !tbaa !68
  %26 = load i32, ptr %9, align 4, !tbaa !3
  %27 = icmp ne i32 %26, 0
  br i1 %27, label %28, label %32

28:                                               ; preds = %24
  %29 = load ptr, ptr %7, align 8, !tbaa !19
  %30 = getelementptr inbounds nuw %struct.Fraig_NodeStruct_t_, ptr %29, i32 0, i32 17
  %31 = load ptr, ptr %30, align 8, !tbaa !51
  br label %36

32:                                               ; preds = %24
  %33 = load ptr, ptr %7, align 8, !tbaa !19
  %34 = getelementptr inbounds nuw %struct.Fraig_NodeStruct_t_, ptr %33, i32 0, i32 18
  %35 = load ptr, ptr %34, align 8, !tbaa !54
  br label %36

36:                                               ; preds = %32, %28
  %37 = phi ptr [ %31, %28 ], [ %35, %32 ]
  store ptr %37, ptr %12, align 8, !tbaa !68
  store i32 0, ptr %13, align 4, !tbaa !3
  br label %38

38:                                               ; preds = %58, %36
  %39 = load i32, ptr %13, align 4, !tbaa !3
  %40 = load i32, ptr %8, align 4, !tbaa !3
  %41 = icmp slt i32 %39, %40
  br i1 %41, label %42, label %61

42:                                               ; preds = %38
  %43 = load ptr, ptr %11, align 8, !tbaa !68
  %44 = load i32, ptr %13, align 4, !tbaa !3
  %45 = sext i32 %44 to i64
  %46 = getelementptr inbounds i32, ptr %43, i64 %45
  %47 = load i32, ptr %46, align 4, !tbaa !3
  %48 = load ptr, ptr %12, align 8, !tbaa !68
  %49 = load i32, ptr %13, align 4, !tbaa !3
  %50 = sext i32 %49 to i64
  %51 = getelementptr inbounds i32, ptr %48, i64 %50
  %52 = load i32, ptr %51, align 4, !tbaa !3
  %53 = xor i32 %47, %52
  %54 = load ptr, ptr %10, align 8, !tbaa !68
  %55 = load i32, ptr %13, align 4, !tbaa !3
  %56 = sext i32 %55 to i64
  %57 = getelementptr inbounds i32, ptr %54, i64 %56
  store i32 %53, ptr %57, align 4, !tbaa !3
  br label %58

58:                                               ; preds = %42
  %59 = load i32, ptr %13, align 4, !tbaa !3
  %60 = add nsw i32 %59, 1
  store i32 %60, ptr %13, align 4, !tbaa !3
  br label %38, !llvm.loop !70

61:                                               ; preds = %38
  call void @llvm.lifetime.end.p0(i64 4, ptr %13) #7
  call void @llvm.lifetime.end.p0(i64 8, ptr %12) #7
  call void @llvm.lifetime.end.p0(i64 8, ptr %11) #7
  ret void
}