; Function Attrs: nofree norecurse nosync nounwind memory(read, argmem: readwrite, inaccessiblemem: none) uwtable
define void @Fraig_CollectXors(ptr noundef readonly captures(none) %0, ptr noundef readonly captures(none) %1, i32 noundef %2, i32 noundef %3, ptr noundef writeonly captures(none) %4) local_unnamed_addr #8 {
  %.not = icmp eq i32 %3, 0
  %.in.v = select i1 %.not, i64 112, i64 104
  %.in = getelementptr inbounds nuw i8, ptr %0, i64 %.in.v
  %6 = load ptr, ptr %.in, align 8, !tbaa !63
  %.in14 = getelementptr inbounds nuw i8, ptr %1, i64 %.in.v
  %7 = load ptr, ptr %.in14, align 8, !tbaa !63
  %8 = icmp sgt i32 %2, 0
  br i1 %8, label %.lr.ph.preheader, label %._crit_edge

.lr.ph.preheader:                                 ; preds = %5
  %wide.trip.count = zext nneg i32 %2 to i64
  br label %.lr.ph

.lr.ph:                                           ; preds = %.lr.ph.preheader, %.lr.ph
  %indvars.iv = phi i64 [ 0, %.lr.ph.preheader ], [ %indvars.iv.next, %.lr.ph ]
  %9 = getelementptr inbounds nuw i32, ptr %6, i64 %indvars.iv
  %10 = load i32, ptr %9, align 4, !tbaa !41
  %11 = getelementptr inbounds nuw i32, ptr %7, i64 %indvars.iv
  %12 = load i32, ptr %11, align 4, !tbaa !41
  %13 = xor i32 %12, %10
  %14 = getelementptr inbounds nuw i32, ptr %4, i64 %indvars.iv
  store i32 %13, ptr %14, align 4, !tbaa !41
  %indvars.iv.next = add nuw nsw i64 %indvars.iv, 1
  %exitcond.not = icmp eq i64 %indvars.iv.next, %wide.trip.count
  br i1 %exitcond.not, label %._crit_edge, label %.lr.ph, !llvm.loop !65

._crit_edge:                                      ; preds = %.lr.ph, %5
  ret void
}